; ModuleID = 'bench/proj/original/larr.cpp.ll'
source_filename = "bench/proj/original/larr.cpp.ll"
target datalayout = "e-m:e-p270:32:32-p271:32:32-p272:64:64-i64:64-i128:128-f80:128-n8:16:32:64-S128"
target triple = "x86_64-pc-linux-gnu"

@_ZL8des_larr = internal constant [27 x i8] c"Larrivee\0A\09Misc Sph, no inv\00", align 16
@pj_s_larr = hidden local_unnamed_addr constant ptr @_ZL8des_larr, align 8
@.str = private unnamed_addr constant [5 x i8] c"larr\00", align 1

; Function Attrs: mustprogress uwtable
define hidden noundef ptr @pj_larr(ptr noundef writeonly %0) local_unnamed_addr #0 {
  %.not = icmp eq ptr %0, null
  br i1 %.not, label %5, label %2

2:                                                ; preds = %1
  %3 = getelementptr inbounds i8, ptr %0, i64 216
  store double 0.000000e+00, ptr %3, align 8
  %4 = getelementptr inbounds i8, ptr %0, i64 104
  store ptr @_ZL14larr_s_forward5PJ_LPP8PJconsts, ptr %4, align 8
  br label %14

5:                                                ; preds = %1
  %6 = tail call noundef ptr @_Z6pj_newv()
  %7 = icmp eq ptr %6, null
  br i1 %7, label %14, label %8

8:                                                ; preds = %5
  %9 = getelementptr inbounds i8, ptr %6, i64 8
  store ptr @.str, ptr %9, align 8
  %10 = getelementptr inbounds i8, ptr %6, i64 16
  store ptr @_ZL8des_larr, ptr %10, align 8
  %11 = getelementptr inbounds i8, ptr %6, i64 360
  store i32 1, ptr %11, align 8
  %12 = getelementptr inbounds i8, ptr %6, i64 380
  store i32 4, ptr %12, align 4
  %13 = getelementptr inbounds i8, ptr %6, i64 384
  store i32 1, ptr %13, align 8
  br label %14

14:                                               ; preds = %5, %8, %2
  %.0 = phi ptr [ %0, %2 ], [ %6, %8 ], [ null, %5 ]
  ret ptr %.0
}

; Function Attrs: mustprogress nofree norecurse nosync nounwind willreturn memory(argmem: write) uwtable
define hidden noundef ptr @_Z33pj_projection_specific_setup_larrP8PJconsts(ptr noundef returned writeonly %0) local_unnamed_addr #1 {
  %2 = getelementptr inbounds i8, ptr %0, i64 216
  store double 0.000000e+00, ptr %2, align 8
  %3 = getelementptr inbounds i8, ptr %0, i64 104
  store ptr @_ZL14larr_s_forward5PJ_LPP8PJconsts, ptr %3, align 8
  ret ptr %0
}

declare noundef ptr @_Z6pj_newv() local_unnamed_addr #2

; Function Attrs: mustprogress nofree nounwind willreturn memory(write) uwtable
define internal { double, double } @_ZL14larr_s_forward5PJ_LPP8PJconsts(double %0, double %1, ptr nocapture readnone %2) #3 {
  %4 = fmul double %0, 5.000000e-01
  %5 = tail call double @cos(double noundef %1) #5
  %6 = tail call double @sqrt(double noundef %5) #5
  %7 = fadd double %6, 1.000000e+00
  %8 = fmul double %4, %7
  %9 = fmul double %1, 5.000000e-01
  %10 = tail call double @cos(double noundef %9) #5
  %11 = fmul double %0, 0x3FC5555555555555
  %12 = tail call double @cos(double noundef %11) #5
  %13 = fmul double %10, %12
  %14 = fdiv double %1, %13
  %.fca.0.insert = insertvalue { double, double } poison, double %8, 0
  %.fca.1.insert = insertvalue { double, double } %.fca.0.insert, double %14, 1
  ret { double, double } %.fca.1.insert
}

; Function Attrs: mustprogress nofree nounwind willreturn memory(write)
declare double @sqrt(double noundef) local_unnamed_addr #4

; Function Attrs: mustprogress nofree nounwind willreturn memory(write)
declare double @cos(double noundef) local_unnamed_addr #4


!llvm.module.flags = !{!0, !1, !2, !3}

!0 = !{i32 1, !"wchar_size", i32 4}
!1 = !{i32 8, !"PIC Level", i32 2}
!2 = !{i32 7, !"uwtable", i32 2}
!3 = !{i32 7, !"frame-pointer", i32 2}
